
applications/gemm_ikj:     file format elf64-littleaarch64


Disassembly of section .text:

0000000000400148 <start>:
  400148:	90000080 	adrp	x0, 410000 <gemm_ikj+0xfe78>
  40014c:	9108c000 	add	x0, x0, #0x230
  400150:	d2900001 	mov	x1, #0x8000                	// #32768
  400154:	ab010022 	adds	x2, x1, x1
  400158:	ab010001 	adds	x1, x0, x1
  40015c:	ab020002 	adds	x2, x0, x2
  400160:	d2800803 	mov	x3, #0x40                  	// #64
  400164:	d2800804 	mov	x4, #0x40                  	// #64
  400168:	d2800805 	mov	x5, #0x40                  	// #64
  40016c:	d10043ff 	sub	sp, sp, #0x10
  400170:	f80003fe 	stur	x30, [sp]
  400174:	94000005 	bl	400188 <gemm_ikj>
  400178:	f84003fe 	ldur	x30, [sp]
  40017c:	910043ff 	add	sp, sp, #0x10
  400180:	d65f03c0 	ret
  400184:	00000000 	.inst	0x00000000 ; undefined

0000000000400188 <gemm_ikj>:
  400188:	ca0600c6 	eor	x6, x6, x6
  40018c:	ca090129 	eor	x9, x9, x9
  400190:	14000023 	b	40021c <gemm_ikj+0x94>
  400194:	ca080108 	eor	x8, x8, x8
  400198:	ca0a014a 	eor	x10, x10, x10
  40019c:	1400001c 	b	40020c <gemm_ikj+0x84>
  4001a0:	ca0700e7 	eor	x7, x7, x7
  4001a4:	14000016 	b	4001fc <gemm_ikj+0x74>
  4001a8:	ab08012b 	adds	x11, x9, x8
  4001ac:	d37df16b 	lsl	x11, x11, #3
  4001b0:	ab0b000b 	adds	x11, x0, x11
  4001b4:	f840016c 	ldur	x12, [x11]
  4001b8:	ab07014b 	adds	x11, x10, x7
  4001bc:	d37df16b 	lsl	x11, x11, #3
  4001c0:	ab0b002b 	adds	x11, x1, x11
  4001c4:	f840016d 	ldur	x13, [x11]
  4001c8:	ca0e01ce 	eor	x14, x14, x14
  4001cc:	14000003 	b	4001d8 <gemm_ikj+0x50>
  4001d0:	ab0c01ce 	adds	x14, x14, x12
  4001d4:	d10005ad 	sub	x13, x13, #0x1
  4001d8:	ea0d01bf 	tst	x13, x13
  4001dc:	54ffffa1 	b.ne	4001d0 <gemm_ikj+0x48>  // b.any
  4001e0:	ab07012b 	adds	x11, x9, x7
  4001e4:	d37df16b 	lsl	x11, x11, #3
  4001e8:	ab0b004b 	adds	x11, x2, x11
  4001ec:	f840016f 	ldur	x15, [x11]
  4001f0:	ab0f01ce 	adds	x14, x14, x15
  4001f4:	f800016e 	stur	x14, [x11]
  4001f8:	910004e7 	add	x7, x7, #0x1
  4001fc:	eb0500ff 	cmp	x7, x5
  400200:	54fffd4b 	b.lt	4001a8 <gemm_ikj+0x20>  // b.tstop
  400204:	91000508 	add	x8, x8, #0x1
  400208:	ab05014a 	adds	x10, x10, x5
  40020c:	eb04011f 	cmp	x8, x4
  400210:	54fffc8b 	b.lt	4001a0 <gemm_ikj+0x18>  // b.tstop
  400214:	910004c6 	add	x6, x6, #0x1
  400218:	ab040129 	adds	x9, x9, x4
  40021c:	eb0300df 	cmp	x6, x3
  400220:	54fffbab 	b.lt	400194 <gemm_ikj+0xc>  // b.tstop
  400224:	d65f03c0 	ret
